; Function Attrs: nounwind uwtable
define i32 @pmix_bfrops_base_pack_topology(ptr noundef %0, ptr noundef %1, ptr noundef %2, i32 noundef %3, i16 noundef zeroext %4) local_unnamed_addr #0 {
  %6 = icmp sgt i32 %3, 0
  br i1 %6, label %.lr.ph.preheader, label %._crit_edge

.lr.ph.preheader:                                 ; preds = %5
  %wide.trip.count = zext nneg i32 %3 to i64
  br label %.lr.ph

7:                                                ; preds = %.lr.ph
  %indvars.iv.next = add nuw nsw i64 %indvars.iv, 1
  %exitcond.not = icmp eq i64 %indvars.iv.next, %wide.trip.count
  br i1 %exitcond.not, label %._crit_edge, label %.lr.ph, !llvm.loop !127

.lr.ph:                                           ; preds = %.lr.ph.preheader, %7
  %indvars.iv = phi i64 [ 0, %.lr.ph.preheader ], [ %indvars.iv.next, %7 ]
  %8 = getelementptr inbounds nuw %struct.pmix_topology_t, ptr %2, i64 %indvars.iv
  %9 = tail call i32 @pmix_hwloc_pack_topology(ptr noundef %1, ptr noundef %8, ptr noundef %0) #8
  %.not = icmp eq i32 %9, 0
  br i1 %.not, label %7, label %._crit_edge

._crit_edge:                                      ; preds = %.lr.ph, %7, %5
  %.0 = phi i32 [ 0, %5 ], [ 0, %7 ], [ %9, %.lr.ph ]
  ret i32 %.0
}